target datalayout = "e-m:e-p270:32:32-p271:32:32-p272:64:64-i64:64-i128:128-f80:128-n8:16:32:64-S128"
target triple = "x86_64-pc-linux-gnu"

%struct.evtype_info = type { ptr, ptr, ptr, ptr, ptr }
%struct.anon.0 = type { i32, %struct.evtype_info }

@hf_ipmi_se_10_evtype = internal global i32 0, align 4
@hf_ipmi_se_10_memory_module = internal global i32 0, align 4
@ssi_10_saveptr = internal global ptr null, align 8
@get_evtype_info.eti_oem = internal constant %struct.evtype_info { ptr @etb2_oem, ptr @etb3_oem, ptr @et_empty, ptr @eti_2_pst_sev, ptr null }, align 8
@get_evtype_info.eti_rsrv = internal constant %struct.evtype_info { ptr @et_empty, ptr @et_empty, ptr @et_empty, ptr null, ptr null }, align 8

; Function Attrs: nounwind null_pointer_is_valid sspstrong uwtable
define internal ptr @get_evtype_info(i32 noundef %0) #3 {
  %2 = alloca ptr, align 8
  %3 = alloca i32, align 4
  %4 = alloca i32, align 4
  %5 = alloca i32, align 4
  store i32 %0, ptr %3, align 4
  call void @llvm.lifetime.start.p0(i64 4, ptr %4) #5
  store i32 0, ptr %4, align 4
  br label %6

6:                                                ; preds = %24, %1
  %7 = load i32, ptr %4, align 4
  %8 = zext i32 %7 to i64
  %9 = icmp ult i64 %8, 13
  br i1 %9, label %10, label %27

10:                                               ; preds = %6
  %11 = load i32, ptr %4, align 4
  %12 = zext i32 %11 to i64
  %13 = getelementptr [13 x %struct.anon.0], ptr @get_evtype_info.eti_tab, i64 0, i64 %12
  %14 = getelementptr inbounds nuw %struct.anon.0, ptr %13, i32 0, i32 0
  %15 = load i32, ptr %14, align 16
  %16 = load i32, ptr %3, align 4
  %17 = icmp eq i32 %15, %16
  br i1 %17, label %18, label %23

18:                                               ; preds = %10
  %19 = load i32, ptr %4, align 4
  %20 = zext i32 %19 to i64
  %21 = getelementptr [13 x %struct.anon.0], ptr @get_evtype_info.eti_tab, i64 0, i64 %20
  %22 = getelementptr inbounds nuw %struct.anon.0, ptr %21, i32 0, i32 1
  store ptr %22, ptr %2, align 8
  store i32 1, ptr %5, align 4
  br label %35

23:                                               ; preds = %10
  br label %24

24:                                               ; preds = %23
  %25 = load i32, ptr %4, align 4
  %26 = add i32 %25, 1
  store i32 %26, ptr %4, align 4
  br label %6, !llvm.loop !10

27:                                               ; preds = %6
  %28 = load i32, ptr %3, align 4
  %29 = icmp uge i32 %28, 112
  br i1 %29, label %30, label %34

30:                                               ; preds = %27
  %31 = load i32, ptr %3, align 4
  %32 = icmp ule i32 %31, 127
  br i1 %32, label %33, label %34

33:                                               ; preds = %30
  store ptr @get_evtype_info.eti_oem, ptr %2, align 8
  store i32 1, ptr %5, align 4
  br label %35

34:                                               ; preds = %30, %27
  store ptr @get_evtype_info.eti_rsrv, ptr %2, align 8
  store i32 1, ptr %5, align 4
  br label %35

35:                                               ; preds = %34, %33, %18
  call void @llvm.lifetime.end.p0(i64 4, ptr %4) #5
  %36 = load ptr, ptr %2, align 8
  ret ptr %36
}

; Function Attrs: null_pointer_is_valid sspstrong uwtable
define internal zeroext i1 @ssi_10_2(ptr noundef %0, ptr noundef %1, ptr noundef %2, i32 noundef %3, i32 noundef %4, i32 noundef %5) #0 {
  %7 = alloca i1, align 1
  %8 = alloca ptr, align 8
  %9 = alloca ptr, align 8
  %10 = alloca ptr, align 8
  %11 = alloca i32, align 4
  %12 = alloca i32, align 4
  %13 = alloca i32, align 4
  store ptr %0, ptr %8, align 8
  store ptr %1, ptr %9, align 8
  store ptr %2, ptr %10, align 8
  store i32 %3, ptr %11, align 4
  store i32 %4, ptr %12, align 4
  store i32 %5, ptr %13, align 4
  %14 = load i32, ptr %11, align 4
  %15 = icmp eq i32 %14, 3
  br i1 %15, label %16, label %24

16:                                               ; preds = %6
  %17 = load i32, ptr %12, align 4
  %18 = icmp eq i32 %17, 0
  br i1 %18, label %19, label %24

19:                                               ; preds = %16
  %20 = load ptr, ptr %8, align 8
  %21 = load i32, ptr @hf_ipmi_se_10_memory_module, align 4
  %22 = load ptr, ptr %9, align 8
  %23 = call ptr @proto_tree_add_item(ptr noundef %20, i32 noundef %21, ptr noundef %22, i32 noundef 0, i32 noundef 1, i32 noundef -2147483648)
  store i1 true, ptr %7, align 1
  br label %38

24:                                               ; preds = %16, %6
  %25 = load i32, ptr %11, align 4
  %26 = icmp eq i32 %25, 3
  br i1 %26, label %27, label %37

27:                                               ; preds = %24
  %28 = load i32, ptr %12, align 4
  %29 = icmp eq i32 %28, 1
  br i1 %29, label %30, label %37

30:                                               ; preds = %27
  %31 = load i32, ptr %13, align 4
  %32 = call ptr @get_evtype_info(i32 noundef %31)
  store ptr %32, ptr @ssi_10_saveptr, align 8
  %33 = load ptr, ptr %8, align 8
  %34 = load i32, ptr @hf_ipmi_se_10_evtype, align 4
  %35 = load ptr, ptr %9, align 8
  %36 = call ptr @proto_tree_add_item(ptr noundef %33, i32 noundef %34, ptr noundef %35, i32 noundef 0, i32 noundef 1, i32 noundef -2147483648)
  store i1 true, ptr %7, align 1
  br label %38

37:                                               ; preds = %27, %24
  store i1 false, ptr %7, align 1
  br label %38

38:                                               ; preds = %37, %30, %19
  %39 = load i1, ptr %7, align 1
  ret i1 %39
}