; Function Attrs: null_pointer_is_valid sspstrong uwtable
define internal noundef zeroext i1 @ssi_10_2(ptr noundef %0, ptr noundef %1, ptr readnone captures(none) %2, i32 noundef %3, i32 noundef %4, i32 noundef %5) #0 {
  %7 = icmp eq i32 %3, 3
  %8 = icmp eq i32 %4, 0
  %or.cond = and i1 %7, %8
  br i1 %or.cond, label %.sink.split, label %9

9:                                                ; preds = %6
  %10 = icmp eq i32 %4, 1
  %or.cond3 = and i1 %7, %10
  br i1 %or.cond3, label %.preheader, label %21

11:                                               ; preds = %.preheader
  %indvars.iv.next.i = add nuw nsw i64 %indvars.iv.i, 1
  %exitcond.not.i = icmp eq i64 %indvars.iv.next.i, 13
  br i1 %exitcond.not.i, label %17, label %.preheader, !llvm.loop !10

.preheader:                                       ; preds = %9, %11
  %indvars.iv.i = phi i64 [ %indvars.iv.next.i, %11 ], [ 0, %9 ]
  %12 = getelementptr [13 x %struct.anon.0], ptr @get_evtype_info.eti_tab, i64 0, i64 %indvars.iv.i
  %13 = load i32, ptr %12, align 16
  %14 = icmp eq i32 %13, %5
  br i1 %14, label %15, label %11

15:                                               ; preds = %.preheader
  %16 = getelementptr inbounds nuw i8, ptr %12, i64 8
  br label %get_evtype_info.exit

17:                                               ; preds = %11
  %18 = and i32 %5, -16
  %or.cond.i = icmp eq i32 %18, 112
  %get_evtype_info.eti_oem.get_evtype_info.eti_rsrv.i = select i1 %or.cond.i, ptr @get_evtype_info.eti_oem, ptr @get_evtype_info.eti_rsrv
  br label %get_evtype_info.exit

get_evtype_info.exit:                             ; preds = %15, %17
  %.08.i = phi ptr [ %16, %15 ], [ %get_evtype_info.eti_oem.get_evtype_info.eti_rsrv.i, %17 ]
  store ptr %.08.i, ptr @ssi_10_saveptr, align 8
  br label %.sink.split

.sink.split:                                      ; preds = %6, %get_evtype_info.exit
  %hf_ipmi_se_10_evtype.sink = phi ptr [ @hf_ipmi_se_10_evtype, %get_evtype_info.exit ], [ @hf_ipmi_se_10_memory_module, %6 ]
  %19 = load i32, ptr %hf_ipmi_se_10_evtype.sink, align 4
  %20 = tail call ptr @proto_tree_add_item(ptr noundef %0, i32 noundef %19, ptr noundef %1, i32 noundef 0, i32 noundef 1, i32 noundef -2147483648)
  br label %21

21:                                               ; preds = %.sink.split, %9
  %.0 = phi i1 [ false, %9 ], [ true, %.sink.split ]
  ret i1 %.0
}